; Function Attrs: nounwind uwtable
define ptr @l_Lean_Elab_Term_MatchExpr_toElseAlt_x3f(ptr noundef %0) local_unnamed_addr #0 {
  %2 = load ptr, ptr @l_Lean_Elab_Term_MatchExpr_toElseAlt_x3f___closed__5, align 8, !tbaa !4
  %3 = ptrtoint ptr %0 to i64
  %4 = and i64 %3, 1
  %.not = icmp eq i64 %4, 0
  br i1 %.not, label %5, label %lean_inc.exit.thread

5:                                                ; preds = %1
  %.val.i = load i32, ptr %0, align 4, !tbaa !8
  %6 = icmp sgt i32 %.val.i, 0
  br i1 %6, label %7, label %9, !prof !11

7:                                                ; preds = %5
  %8 = add nuw i32 %.val.i, 1
  store i32 %8, ptr %0, align 4, !tbaa !8
  br label %lean_inc.exit

9:                                                ; preds = %5
  %.not.i15 = icmp eq i32 %.val.i, 0
  br i1 %.not.i15, label %lean_inc.exit, label %10

10:                                               ; preds = %9
  tail call void @lean_inc_ref_cold(ptr noundef nonnull %0) #6
  br label %lean_inc.exit

lean_inc.exit:                                    ; preds = %10, %9, %7
  %11 = tail call zeroext i8 @l_Lean_Syntax_isOfKind(ptr noundef nonnull %0, ptr noundef %2) #6
  %12 = icmp eq i8 %11, 0
  br i1 %12, label %16, label %23

lean_inc.exit.thread:                             ; preds = %1
  %13 = tail call zeroext i8 @l_Lean_Syntax_isOfKind(ptr noundef %0, ptr noundef %2) #6
  %14 = icmp eq i8 %13, 0
  br i1 %14, label %lean_dec.exit, label %.thread16

.thread16:                                        ; preds = %lean_inc.exit.thread
  %15 = tail call ptr @l_Lean_Syntax_getArg(ptr noundef %0, ptr noundef nonnull inttoptr (i64 7 to ptr)) #6
  br label %lean_dec.exit12

16:                                               ; preds = %lean_inc.exit
  %17 = load i32, ptr %0, align 4, !tbaa !8
  %18 = icmp sgt i32 %17, 1
  br i1 %18, label %19, label %21, !prof !11

19:                                               ; preds = %16
  %20 = add nsw i32 %17, -1
  store i32 %20, ptr %0, align 4, !tbaa !8
  br label %lean_dec.exit

21:                                               ; preds = %16
  %.not.i13 = icmp eq i32 %17, 0
  br i1 %.not.i13, label %lean_dec.exit, label %22

22:                                               ; preds = %21
  tail call void @lean_dec_ref_cold(ptr noundef nonnull %0) #6
  br label %lean_dec.exit

23:                                               ; preds = %lean_inc.exit
  %24 = tail call ptr @l_Lean_Syntax_getArg(ptr noundef nonnull %0, ptr noundef nonnull inttoptr (i64 7 to ptr)) #6
  %25 = load i32, ptr %0, align 4, !tbaa !8
  %26 = icmp sgt i32 %25, 1
  br i1 %26, label %27, label %29, !prof !11

27:                                               ; preds = %23
  %28 = add nsw i32 %25, -1
  store i32 %28, ptr %0, align 4, !tbaa !8
  br label %lean_dec.exit12

29:                                               ; preds = %23
  %.not.i = icmp eq i32 %25, 0
  br i1 %.not.i, label %lean_dec.exit12, label %30

30:                                               ; preds = %29
  tail call void @lean_dec_ref_cold(ptr noundef nonnull %0) #6
  br label %lean_dec.exit12

lean_dec.exit12:                                  ; preds = %30, %29, %27, %.thread16
  %31 = phi ptr [ %15, %.thread16 ], [ %24, %27 ], [ %24, %29 ], [ %24, %30 ]
  tail call void @lean_inc_heartbeat() #6
  %32 = tail call noalias ptr @mi_malloc_small(i64 noundef 16) #6
  %33 = icmp eq ptr %32, null
  br i1 %33, label %34, label %lean_alloc_ctor.exit

34:                                               ; preds = %lean_dec.exit12
  tail call void @lean_internal_panic_out_of_memory() #7
  unreachable

lean_alloc_ctor.exit:                             ; preds = %lean_dec.exit12
  %35 = getelementptr inbounds nuw i8, ptr %32, i64 4
  store i32 1, ptr %32, align 4, !tbaa !8
  store i32 16842768, ptr %35, align 4
  %36 = getelementptr inbounds nuw i8, ptr %32, i64 8
  store ptr %31, ptr %36, align 8, !tbaa !4
  br label %lean_dec.exit

lean_dec.exit:                                    ; preds = %lean_inc.exit.thread, %19, %21, %22, %lean_alloc_ctor.exit
  %.0 = phi ptr [ %32, %lean_alloc_ctor.exit ], [ inttoptr (i64 1 to ptr), %22 ], [ inttoptr (i64 1 to ptr), %21 ], [ inttoptr (i64 1 to ptr), %19 ], [ inttoptr (i64 1 to ptr), %lean_inc.exit.thread ]
  ret ptr %.0
}